target datalayout = "e-m:e-p270:32:32-p271:32:32-p272:64:64-i64:64-i128:128-f80:128-n8:16:32:64-S128"
target triple = "x86_64-pc-linux-gnu"

; Function Attrs: nounwind sspstrong uwtable
define hidden zeroext i8 @FLAC__crc8(ptr noundef %0, i32 noundef %1) #0 {
  %3 = alloca ptr, align 8
  %4 = alloca i32, align 4
  %5 = alloca i8, align 1
  store ptr %0, ptr %3, align 8, !tbaa !3
  store i32 %1, ptr %4, align 4, !tbaa !8
  call void @llvm.lifetime.start.p0(i64 1, ptr %5) #2
  store i8 0, ptr %5, align 1, !tbaa !10
  br label %6

6:                                                ; preds = %10, %2
  %7 = load i32, ptr %4, align 4, !tbaa !8
  %8 = add i32 %7, -1
  store i32 %8, ptr %4, align 4, !tbaa !8
  %9 = icmp ne i32 %7, 0
  br i1 %9, label %10, label %21

10:                                               ; preds = %6
  %11 = load i8, ptr %5, align 1, !tbaa !10
  %12 = zext i8 %11 to i32
  %13 = load ptr, ptr %3, align 8, !tbaa !3
  %14 = getelementptr inbounds nuw i8, ptr %13, i32 1
  store ptr %14, ptr %3, align 8, !tbaa !3
  %15 = load i8, ptr %13, align 1, !tbaa !10
  %16 = zext i8 %15 to i32
  %17 = xor i32 %12, %16
  %18 = sext i32 %17 to i64
  %19 = getelementptr inbounds [256 x i8], ptr @FLAC__crc8_table, i64 0, i64 %18
  %20 = load i8, ptr %19, align 1, !tbaa !10
  store i8 %20, ptr %5, align 1, !tbaa !10
  br label %6, !llvm.loop !11

21:                                               ; preds = %6
  %22 = load i8, ptr %5, align 1, !tbaa !10
  call void @llvm.lifetime.end.p0(i64 1, ptr %5) #2
  ret i8 %22
}