; Function Attrs: nofree norecurse nosync nounwind sspstrong memory(argmem: read) uwtable
define hidden zeroext i8 @FLAC__crc8(ptr noundef readonly captures(none) %0, i32 noundef %1) local_unnamed_addr #0 {
  %.not5 = icmp eq i32 %1, 0
  br i1 %.not5, label %._crit_edge, label %.lr.ph

.lr.ph:                                           ; preds = %2, %.lr.ph
  %.08 = phi i8 [ %9, %.lr.ph ], [ 0, %2 ]
  %.037 = phi i32 [ %3, %.lr.ph ], [ %1, %2 ]
  %.046 = phi ptr [ %4, %.lr.ph ], [ %0, %2 ]
  %3 = add i32 %.037, -1
  %4 = getelementptr inbounds nuw i8, ptr %.046, i64 1
  %5 = load i8, ptr %.046, align 1, !tbaa !3
  %6 = xor i8 %5, %.08
  %7 = zext i8 %6 to i64
  %8 = getelementptr inbounds nuw [256 x i8], ptr @FLAC__crc8_table, i64 0, i64 %7
  %9 = load i8, ptr %8, align 1, !tbaa !3
  %.not = icmp eq i32 %3, 0
  br i1 %.not, label %._crit_edge, label %.lr.ph, !llvm.loop !6

._crit_edge:                                      ; preds = %.lr.ph, %2
  %.0.lcssa = phi i8 [ 0, %2 ], [ %9, %.lr.ph ]
  ret i8 %.0.lcssa
}